target datalayout = "e-m:e-p270:32:32-p271:32:32-p272:64:64-i64:64-i128:128-f80:128-n8:16:32:64-S128"
target triple = "x86_64-unknown-linux-gnu"

%"class.QuantLib::EndCriteria" = type { i64, i64, double, double, double }

; Function Attrs: mustprogress nounwind uwtable
define noundef zeroext i1 @_ZNK8QuantLib11EndCriteria31checkStationaryFunctionAccuracyEdbRNS0_4TypeE(ptr noundef nonnull align 8 dereferenceable(40) %this, double noundef %f, i1 noundef zeroext %positiveOptimization, ptr noundef nonnull align 4 dereferenceable(4) %ecType) #4 align 2 {
entry:
  %retval = alloca i1, align 1
  %this.addr = alloca ptr, align 8
  %f.addr = alloca double, align 8
  %positiveOptimization.addr = alloca i8, align 1
  %ecType.addr = alloca ptr, align 8
  store ptr %this, ptr %this.addr, align 8, !tbaa !3
  store double %f, ptr %f.addr, align 8, !tbaa !9
  %storedv = zext i1 %positiveOptimization to i8
  store i8 %storedv, ptr %positiveOptimization.addr, align 1, !tbaa !21
  store ptr %ecType, ptr %ecType.addr, align 8, !tbaa !3
  %this1 = load ptr, ptr %this.addr, align 8
  %0 = load i8, ptr %positiveOptimization.addr, align 1, !tbaa !21, !range !23, !noundef !24
  %loadedv = trunc i8 %0 to i1
  br i1 %loadedv, label %if.end, label %if.then

if.then:                                          ; preds = %entry
  store i1 false, ptr %retval, align 1
  br label %return

if.end:                                           ; preds = %entry
  %1 = load double, ptr %f.addr, align 8, !tbaa !9
  %functionEpsilon_ = getelementptr inbounds nuw %"class.QuantLib::EndCriteria", ptr %this1, i32 0, i32 3
  %2 = load double, ptr %functionEpsilon_, align 8, !tbaa !15
  %cmp = fcmp oge double %1, %2
  br i1 %cmp, label %if.then2, label %if.end3

if.then2:                                         ; preds = %if.end
  store i1 false, ptr %retval, align 1
  br label %return

if.end3:                                          ; preds = %if.end
  %3 = load ptr, ptr %ecType.addr, align 8, !tbaa !3
  store i32 4, ptr %3, align 4, !tbaa !19
  store i1 true, ptr %retval, align 1
  br label %return

return:                                           ; preds = %if.end3, %if.then2, %if.then
  %4 = load i1, ptr %retval, align 1
  ret i1 %4
}