; Function Attrs: mustprogress nofree norecurse nosync nounwind willreturn memory(argmem: readwrite) uwtable
define noundef zeroext i1 @_ZNK8QuantLib11EndCriteria31checkStationaryFunctionAccuracyEdbRNS0_4TypeE(ptr nocapture noundef nonnull readonly align 8 dereferenceable(40) %this, double noundef %f, i1 noundef zeroext %positiveOptimization, ptr nocapture noundef nonnull writeonly align 4 dereferenceable(4) %ecType) local_unnamed_addr #6 align 2 {
entry:
  %functionEpsilon_ = getelementptr inbounds nuw i8, ptr %this, i64 24
  %0 = load double, ptr %functionEpsilon_, align 8
  %cmp = fcmp ult double %f, %0
  %or.cond = select i1 %positiveOptimization, i1 %cmp, i1 false
  br i1 %or.cond, label %if.end3, label %return

if.end3:                                          ; preds = %entry
  store i32 4, ptr %ecType, align 4, !tbaa !25
  br label %return

return:                                           ; preds = %entry, %if.end3
  ret i1 %or.cond
}